; Function Attrs: mustprogress uwtable
define void @_ZN5boost10filesystem6detail11path_traits7convertEPKcS4_RNSt7__cxx1112basic_stringIwSt11char_traitsIwESaIwEEEPKSt7codecvtIwc11__mbstate_tE(ptr noundef %0, ptr noundef %1, ptr noundef nonnull align 8 dereferenceable(32) %2, ptr noundef %3) local_unnamed_addr #1 personality ptr @__gxx_personality_v0 {
  %5 = alloca [256 x i32], align 16
  %6 = icmp eq ptr %0, %1
  br i1 %6, label %25, label %7

7:                                                ; preds = %4
  %.not = icmp eq ptr %3, null
  br i1 %.not, label %8, label %10

8:                                                ; preds = %7
  %9 = tail call noundef nonnull align 8 dereferenceable(24) ptr @_ZN5boost10filesystem4path7codecvtEv()
  br label %10

10:                                               ; preds = %8, %7
  %.0 = phi ptr [ %3, %7 ], [ %9, %8 ]
  %11 = ptrtoint ptr %1 to i64
  %12 = ptrtoint ptr %0 to i64
  %13 = sub i64 %11, %12
  %14 = mul nsw i64 %13, 3
  %15 = icmp ugt i64 %14, 256
  br i1 %15, label %16, label %23

16:                                               ; preds = %10
  %17 = icmp ugt i64 %14, 4611686018427387903
  %18 = mul i64 %13, 12
  %19 = select i1 %17, i64 -1, i64 %18
  %20 = tail call noalias noundef nonnull ptr @_Znam(i64 noundef %19) #15
  %21 = getelementptr inbounds nuw i32, ptr %20, i64 %14
  invoke fastcc void @_ZN12_GLOBAL__N_111convert_auxEPKcS1_PwS2_RNSt7__cxx1112basic_stringIwSt11char_traitsIwESaIwEEERKSt7codecvtIwc11__mbstate_tE(ptr noundef %0, ptr noundef %1, ptr noundef nonnull %20, ptr noundef nonnull %21, ptr noundef nonnull align 8 dereferenceable(32) %2, ptr noundef nonnull align 8 dereferenceable(24) %.0)
          to label %_ZNSt10unique_ptrIA_wSt14default_deleteIS0_EED2Ev.exit unwind label %_ZNSt10unique_ptrIA_wSt14default_deleteIS0_EED2Ev.exit23

_ZNSt10unique_ptrIA_wSt14default_deleteIS0_EED2Ev.exit: ; preds = %16
  tail call void @_ZdaPv(ptr noundef nonnull %20) #16
  br label %25

_ZNSt10unique_ptrIA_wSt14default_deleteIS0_EED2Ev.exit23: ; preds = %16
  %22 = landingpad { ptr, i32 }
          cleanup
  tail call void @_ZdaPv(ptr noundef nonnull %20) #16
  resume { ptr, i32 } %22

23:                                               ; preds = %10
  call void @llvm.lifetime.start.p0(i64 1024, ptr nonnull %5) #17
  %24 = getelementptr inbounds nuw i8, ptr %5, i64 1024
  call fastcc void @_ZN12_GLOBAL__N_111convert_auxEPKcS1_PwS2_RNSt7__cxx1112basic_stringIwSt11char_traitsIwESaIwEEERKSt7codecvtIwc11__mbstate_tE(ptr noundef %0, ptr noundef %1, ptr noundef nonnull %5, ptr noundef nonnull %24, ptr noundef nonnull align 8 dereferenceable(32) %2, ptr noundef nonnull align 8 dereferenceable(24) %.0)
  call void @llvm.lifetime.end.p0(i64 1024, ptr nonnull %5) #17
  br label %25

25:                                               ; preds = %_ZNSt10unique_ptrIA_wSt14default_deleteIS0_EED2Ev.exit, %23, %4
  ret void
}